target datalayout = "e-m:e-p270:32:32-p271:32:32-p272:64:64-i64:64-i128:128-f80:128-n8:16:32:64-S128"
target triple = "x86_64-pc-linux-gnu"

%struct.guid = type { i32, i16, i16, [8 x i8] }

@.str.31 = private unnamed_addr constant [56 x i8] c"%8x-%4hx-%4hx-%2hhx%2hhx-%2hhx%2hhx%2hhx%2hhx%2hhx%2hhx\00", align 1

; Function Attrs: nounwind uwtable
define hidden i32 @file_parse_guid(ptr noundef %0, ptr noundef %1) #0 {
  %3 = alloca ptr, align 8
  %4 = alloca ptr, align 8
  %5 = alloca ptr, align 8
  store ptr %0, ptr %3, align 8
  store ptr %1, ptr %4, align 8
  %6 = load ptr, ptr %4, align 8
  store ptr %6, ptr %5, align 8
  %7 = load ptr, ptr %3, align 8
  %8 = load ptr, ptr %5, align 8
  %9 = getelementptr inbounds %struct.guid, ptr %8, i32 0, i32 0
  %10 = load ptr, ptr %5, align 8
  %11 = getelementptr inbounds %struct.guid, ptr %10, i32 0, i32 1
  %12 = load ptr, ptr %5, align 8
  %13 = getelementptr inbounds %struct.guid, ptr %12, i32 0, i32 2
  %14 = load ptr, ptr %5, align 8
  %15 = getelementptr inbounds %struct.guid, ptr %14, i32 0, i32 3
  %16 = getelementptr inbounds [8 x i8], ptr %15, i64 0, i64 0
  %17 = load ptr, ptr %5, align 8
  %18 = getelementptr inbounds %struct.guid, ptr %17, i32 0, i32 3
  %19 = getelementptr inbounds [8 x i8], ptr %18, i64 0, i64 1
  %20 = load ptr, ptr %5, align 8
  %21 = getelementptr inbounds %struct.guid, ptr %20, i32 0, i32 3
  %22 = getelementptr inbounds [8 x i8], ptr %21, i64 0, i64 2
  %23 = load ptr, ptr %5, align 8
  %24 = getelementptr inbounds %struct.guid, ptr %23, i32 0, i32 3
  %25 = getelementptr inbounds [8 x i8], ptr %24, i64 0, i64 3
  %26 = load ptr, ptr %5, align 8
  %27 = getelementptr inbounds %struct.guid, ptr %26, i32 0, i32 3
  %28 = getelementptr inbounds [8 x i8], ptr %27, i64 0, i64 4
  %29 = load ptr, ptr %5, align 8
  %30 = getelementptr inbounds %struct.guid, ptr %29, i32 0, i32 3
  %31 = getelementptr inbounds [8 x i8], ptr %30, i64 0, i64 5
  %32 = load ptr, ptr %5, align 8
  %33 = getelementptr inbounds %struct.guid, ptr %32, i32 0, i32 3
  %34 = getelementptr inbounds [8 x i8], ptr %33, i64 0, i64 6
  %35 = load ptr, ptr %5, align 8
  %36 = getelementptr inbounds %struct.guid, ptr %35, i32 0, i32 3
  %37 = getelementptr inbounds [8 x i8], ptr %36, i64 0, i64 7
  %38 = call i32 (ptr, ptr, ...) @__isoc99_sscanf(ptr noundef %7, ptr noundef @.str.31, ptr noundef %9, ptr noundef %11, ptr noundef %13, ptr noundef %16, ptr noundef %19, ptr noundef %22, ptr noundef %25, ptr noundef %28, ptr noundef %31, ptr noundef %34, ptr noundef %37) #13
  %39 = icmp eq i32 %38, 11
  %40 = select i1 %39, i32 0, i32 -1
  ret i32 %40
}