; Function Attrs: nofree nounwind uwtable
define hidden noundef i32 @file_parse_guid(ptr nocapture noundef readonly %0, ptr noundef %1) local_unnamed_addr #12 {
  %3 = getelementptr inbounds i8, ptr %1, i64 4
  %4 = getelementptr inbounds i8, ptr %1, i64 6
  %5 = getelementptr inbounds i8, ptr %1, i64 8
  %6 = getelementptr inbounds i8, ptr %1, i64 9
  %7 = getelementptr inbounds i8, ptr %1, i64 10
  %8 = getelementptr inbounds i8, ptr %1, i64 11
  %9 = getelementptr inbounds i8, ptr %1, i64 12
  %10 = getelementptr inbounds i8, ptr %1, i64 13
  %11 = getelementptr inbounds i8, ptr %1, i64 14
  %12 = getelementptr inbounds i8, ptr %1, i64 15
  %13 = tail call i32 (ptr, ptr, ...) @__isoc99_sscanf(ptr noundef %0, ptr noundef nonnull @.str.31, ptr noundef %1, ptr noundef nonnull %3, ptr noundef nonnull %4, ptr noundef nonnull %5, ptr noundef nonnull %6, ptr noundef nonnull %7, ptr noundef nonnull %8, ptr noundef nonnull %9, ptr noundef nonnull %10, ptr noundef nonnull %11, ptr noundef nonnull %12) #17
  %14 = icmp ne i32 %13, 11
  %15 = sext i1 %14 to i32
  ret i32 %15
}